target datalayout = "e-m:e-p270:32:32-p271:32:32-p272:64:64-i64:64-i128:128-f80:128-n8:16:32:64-S128"
target triple = "x86_64-pc-linux-gnu"

%struct._dcerpc_info = type { ptr, i32, i64, i8, i32, i32, i32, i32, i32, i32, i32, i32, i32, i32, ptr, ptr, ptr }

; Function Attrs: nounwind uwtable
define hidden i32 @lsarpc_dissect_bitmap_security_secinfo(ptr noundef %0, i32 noundef %1, ptr noundef %2, ptr noundef %3, ptr noundef %4, ptr noundef %5, i32 noundef %6, i32 noundef %7) #0 {
  %9 = alloca ptr, align 8
  %10 = alloca i32, align 4
  %11 = alloca ptr, align 8
  %12 = alloca ptr, align 8
  %13 = alloca ptr, align 8
  %14 = alloca ptr, align 8
  %15 = alloca i32, align 4
  %16 = alloca i32, align 4
  %17 = alloca i32, align 4
  store ptr %0, ptr %9, align 8
  store i32 %1, ptr %10, align 4
  store ptr %2, ptr %11, align 8
  store ptr %3, ptr %12, align 8
  store ptr %4, ptr %13, align 8
  store ptr %5, ptr %14, align 8
  store i32 %6, ptr %15, align 4
  store i32 %7, ptr %16, align 4
  %18 = load ptr, ptr %13, align 8
  %19 = getelementptr inbounds %struct._dcerpc_info, ptr %18, i32 0, i32 4
  %20 = load i32, ptr %19, align 4
  %21 = icmp ne i32 %20, 0
  br i1 %21, label %31, label %22

22:                                               ; preds = %8
  %23 = load i32, ptr %10, align 4
  %24 = and i32 %23, 3
  %25 = icmp ne i32 %24, 0
  br i1 %25, label %26, label %30

26:                                               ; preds = %22
  %27 = load i32, ptr %10, align 4
  %28 = and i32 %27, -4
  %29 = add i32 %28, 4
  store i32 %29, ptr %10, align 4
  br label %30

30:                                               ; preds = %26, %22
  br label %31

31:                                               ; preds = %30, %8
  %32 = load ptr, ptr %12, align 8
  %33 = load i32, ptr %15, align 4
  %34 = load ptr, ptr %9, align 8
  %35 = load i32, ptr %10, align 4
  %36 = load ptr, ptr %14, align 8
  %37 = getelementptr i8, ptr %36, i64 0
  %38 = load i8, ptr %37, align 1
  %39 = zext i8 %38 to i32
  %40 = and i32 %39, 16
  %41 = icmp ne i32 %40, 0
  %42 = select i1 %41, i32 -2147483648, i32 0
  %43 = call ptr @proto_tree_add_item(ptr noundef %32, i32 noundef %33, ptr noundef %34, i32 noundef %35, i32 noundef 4, i32 noundef %42)
  %44 = load ptr, ptr %9, align 8
  %45 = load i32, ptr %10, align 4
  %46 = load ptr, ptr %11, align 8
  %47 = load ptr, ptr %12, align 8
  %48 = load ptr, ptr %13, align 8
  %49 = load ptr, ptr %14, align 8
  %50 = call i32 @dissect_ndr_uint32(ptr noundef %44, i32 noundef %45, ptr noundef %46, ptr noundef %47, ptr noundef %48, ptr noundef %49, i32 noundef -1, ptr noundef %17)
  store i32 %50, ptr %10, align 4
  %51 = load i32, ptr %10, align 4
  ret i32 %51
}